target datalayout = "e-m:e-p270:32:32-p271:32:32-p272:64:64-i64:64-i128:128-f80:128-n8:16:32:64-S128"
target triple = "x86_64-pc-linux-gnu"

%struct.reg_named_capture_assign_t = type { ptr, ptr, ptr, ptr, ptr }

; Function Attrs: nounwind sspstrong uwtable
define internal i32 @reg_named_capture_assign_iter(ptr noundef %0, ptr noundef %1, i32 noundef %2, ptr noundef %3, ptr noundef %4, ptr noundef %5) #0 {
  %7 = alloca ptr, align 8
  %8 = alloca ptr, align 8
  %9 = alloca i32, align 4
  %10 = alloca ptr, align 8
  %11 = alloca ptr, align 8
  %12 = alloca ptr, align 8
  %13 = alloca ptr, align 8
  %14 = alloca ptr, align 8
  %15 = alloca ptr, align 8
  %16 = alloca i64, align 8
  %17 = alloca ptr, align 8
  store ptr %0, ptr %7, align 8, !tbaa !19
  store ptr %1, ptr %8, align 8, !tbaa !19
  store i32 %2, ptr %9, align 4, !tbaa !34
  store ptr %3, ptr %10, align 8, !tbaa !555
  store ptr %4, ptr %11, align 8, !tbaa !758
  store ptr %5, ptr %12, align 8, !tbaa !491
  call void @llvm.lifetime.start.p0(i64 8, ptr %13) #26
  %18 = load ptr, ptr %12, align 8, !tbaa !491
  store ptr %18, ptr %13, align 8, !tbaa !491
  call void @llvm.lifetime.start.p0(i64 8, ptr %14) #26
  %19 = load ptr, ptr %13, align 8, !tbaa !491
  %20 = getelementptr inbounds nuw %struct.reg_named_capture_assign_t, ptr %19, i32 0, i32 0
  %21 = load ptr, ptr %20, align 8, !tbaa !744
  store ptr %21, ptr %14, align 8, !tbaa !7
  call void @llvm.lifetime.start.p0(i64 8, ptr %15) #26
  %22 = load ptr, ptr %13, align 8, !tbaa !491
  %23 = getelementptr inbounds nuw %struct.reg_named_capture_assign_t, ptr %22, i32 0, i32 1
  %24 = load ptr, ptr %23, align 8, !tbaa !746
  store ptr %24, ptr %15, align 8, !tbaa !21
  call void @llvm.lifetime.start.p0(i64 8, ptr %16) #26
  %25 = load ptr, ptr %8, align 8, !tbaa !19
  %26 = load ptr, ptr %7, align 8, !tbaa !19
  %27 = ptrtoint ptr %25 to i64
  %28 = ptrtoint ptr %26 to i64
  %29 = sub i64 %27, %28
  store i64 %29, ptr %16, align 8, !tbaa !12
  call void @llvm.lifetime.start.p0(i64 8, ptr %17) #26
  %30 = load ptr, ptr %7, align 8, !tbaa !19
  store ptr %30, ptr %17, align 8, !tbaa !19
  %31 = load ptr, ptr %14, align 8, !tbaa !7
  %32 = load ptr, ptr %17, align 8, !tbaa !19
  %33 = load i64, ptr %16, align 8, !tbaa !12
  %34 = load ptr, ptr %15, align 8, !tbaa !21
  %35 = load ptr, ptr %13, align 8, !tbaa !491
  %36 = getelementptr inbounds nuw %struct.reg_named_capture_assign_t, ptr %35, i32 0, i32 2
  %37 = load ptr, ptr %13, align 8, !tbaa !491
  %38 = getelementptr inbounds nuw %struct.reg_named_capture_assign_t, ptr %37, i32 0, i32 3
  %39 = load ptr, ptr %38, align 8, !tbaa !748
  %40 = load ptr, ptr %13, align 8, !tbaa !491
  %41 = getelementptr inbounds nuw %struct.reg_named_capture_assign_t, ptr %40, i32 0, i32 4
  %42 = load ptr, ptr %41, align 8, !tbaa !749
  %43 = call i32 @rb_reg_named_capture_assign_iter_impl(ptr noundef %31, ptr noundef %32, i64 noundef %33, ptr noundef %34, ptr noundef %36, ptr noundef %39, ptr noundef %42)
  call void @llvm.lifetime.end.p0(i64 8, ptr %17) #26
  call void @llvm.lifetime.end.p0(i64 8, ptr %16) #26
  call void @llvm.lifetime.end.p0(i64 8, ptr %15) #26
  call void @llvm.lifetime.end.p0(i64 8, ptr %14) #26
  call void @llvm.lifetime.end.p0(i64 8, ptr %13) #26
  ret i32 %43
}