; Function Attrs: nounwind sspstrong uwtable
define internal noundef i32 @reg_named_capture_assign_iter(ptr noundef %0, ptr noundef %1, i32 %2, ptr readnone captures(none) %3, ptr readnone captures(none) %4, ptr noundef captures(none) %5) #0 {
  %7 = load ptr, ptr %5, align 8, !tbaa !353
  %8 = getelementptr inbounds nuw i8, ptr %5, i64 8
  %9 = load ptr, ptr %8, align 8, !tbaa !356
  %10 = ptrtoint ptr %1 to i64
  %11 = ptrtoint ptr %0 to i64
  %12 = sub i64 %10, %11
  %13 = getelementptr inbounds nuw i8, ptr %5, i64 16
  %14 = getelementptr inbounds nuw i8, ptr %5, i64 24
  %15 = load ptr, ptr %14, align 8, !tbaa !358
  %16 = getelementptr inbounds nuw i8, ptr %5, i64 32
  %17 = load ptr, ptr %16, align 8, !tbaa !359
  %18 = tail call i32 @rb_reg_named_capture_assign_iter_impl(ptr noundef %7, ptr noundef %0, i64 noundef %12, ptr noundef %9, ptr noundef nonnull %13, ptr noundef %15, ptr noundef %17)
  ret i32 0
}